target datalayout = "e-m:e-p270:32:32-p271:32:32-p272:64:64-i64:64-i128:128-f80:128-n8:16:32:64-S128"
target triple = "x86_64-pc-linux-gnu"

%struct.hashmap_entry = type { ptr, i32 }
%struct.pair_entry = type { %struct.hashmap_entry, [4096 x i8], [4096 x i8], [0 x i8] }

@.str.83 = private unnamed_addr constant [27 x i8] c"size_t overflow: %lu + %lu\00", align 1

; Function Attrs: inlinehint nounwind uwtable
define internal ptr @container_of_or_null_offset(ptr noundef %0, i64 noundef %1) #4 {
  %3 = alloca ptr, align 8
  %4 = alloca i64, align 8
  store ptr %0, ptr %3, align 8, !tbaa !34
  store i64 %1, ptr %4, align 8, !tbaa !65
  %5 = load ptr, ptr %3, align 8, !tbaa !34
  %6 = icmp ne ptr %5, null
  br i1 %6, label %7, label %12

7:                                                ; preds = %2
  %8 = load ptr, ptr %3, align 8, !tbaa !34
  %9 = load i64, ptr %4, align 8, !tbaa !65
  %10 = sub i64 0, %9
  %11 = getelementptr inbounds i8, ptr %8, i64 %10
  br label %13

12:                                               ; preds = %2
  br label %13

13:                                               ; preds = %12, %7
  %14 = phi ptr [ %11, %7 ], [ null, %12 ]
  ret ptr %14
}

; Function Attrs: inlinehint nounwind uwtable
define internal void @hashmap_entry_init(ptr noundef %0, i32 noundef %1) #4 {
  %3 = alloca ptr, align 8
  %4 = alloca i32, align 4
  store ptr %0, ptr %3, align 8, !tbaa !86
  store i32 %1, ptr %4, align 4, !tbaa !4
  %5 = load i32, ptr %4, align 4, !tbaa !4
  %6 = load ptr, ptr %3, align 8, !tbaa !86
  %7 = getelementptr inbounds nuw %struct.hashmap_entry, ptr %6, i32 0, i32 1
  store i32 %5, ptr %7, align 8, !tbaa !101
  %8 = load ptr, ptr %3, align 8, !tbaa !86
  %9 = getelementptr inbounds nuw %struct.hashmap_entry, ptr %8, i32 0, i32 0
  store ptr null, ptr %9, align 8, !tbaa !103
  ret void
}

; Function Attrs: inlinehint nounwind uwtable
define internal i64 @st_add(i64 noundef %0, i64 noundef %1) #4 {
  %3 = alloca i64, align 8
  %4 = alloca i64, align 8
  store i64 %0, ptr %3, align 8, !tbaa !65
  store i64 %1, ptr %4, align 8, !tbaa !65
  %5 = load i64, ptr %4, align 8, !tbaa !65
  %6 = load i64, ptr %3, align 8, !tbaa !65
  %7 = sub i64 -1, %6
  %8 = icmp ugt i64 %5, %7
  br i1 %8, label %9, label %12

9:                                                ; preds = %2
  %10 = load i64, ptr %3, align 8, !tbaa !65
  %11 = load i64, ptr %4, align 8, !tbaa !65
  call void (ptr, ...) @die(ptr noundef @.str.83, i64 noundef %10, i64 noundef %11) #10
  unreachable

12:                                               ; preds = %2
  %13 = load i64, ptr %3, align 8, !tbaa !65
  %14 = load i64, ptr %4, align 8, !tbaa !65
  %15 = add i64 %13, %14
  ret i64 %15
}

; Function Attrs: nounwind uwtable
define internal void @add_left_or_right(ptr noundef %0, ptr noundef %1, ptr noundef %2, i32 noundef %3) #0 {
  %5 = alloca ptr, align 8
  %6 = alloca ptr, align 8
  %7 = alloca ptr, align 8
  %8 = alloca i32, align 4
  %9 = alloca ptr, align 8
  %10 = alloca ptr, align 8
  %11 = alloca i64, align 8
  store ptr %0, ptr %5, align 8, !tbaa !97
  store ptr %1, ptr %6, align 8, !tbaa !11
  store ptr %2, ptr %7, align 8, !tbaa !11
  store i32 %3, ptr %8, align 4, !tbaa !4
  call void @llvm.lifetime.start.p0(i64 8, ptr %9) #9
  call void @llvm.lifetime.start.p0(i64 8, ptr %10) #9
  br label %12

12:                                               ; preds = %4
  call void @llvm.lifetime.start.p0(i64 8, ptr %11) #9
  %13 = load ptr, ptr %6, align 8, !tbaa !11
  %14 = call i64 @strlen(ptr noundef %13) #11
  store i64 %14, ptr %11, align 8, !tbaa !65
  %15 = load i64, ptr %11, align 8, !tbaa !65
  %16 = call i64 @st_add(i64 noundef 8208, i64 noundef %15)
  %17 = call i64 @st_add(i64 noundef %16, i64 noundef 1)
  %18 = call ptr @xcalloc(i64 noundef 1, i64 noundef %17)
  store ptr %18, ptr %9, align 8, !tbaa !79
  %19 = load ptr, ptr %9, align 8, !tbaa !79
  %20 = getelementptr inbounds nuw %struct.pair_entry, ptr %19, i32 0, i32 3
  %21 = getelementptr inbounds [0 x i8], ptr %20, i64 0, i64 0
  %22 = load ptr, ptr %6, align 8, !tbaa !11
  %23 = load i64, ptr %11, align 8, !tbaa !65
  call void @llvm.memcpy.p0.p0.i64(ptr align 8 %21, ptr align 1 %22, i64 %23, i1 false)
  call void @llvm.lifetime.end.p0(i64 8, ptr %11) #9
  br label %24

24:                                               ; preds = %12
  br label %25

25:                                               ; preds = %24
  %26 = load ptr, ptr %9, align 8, !tbaa !79
  %27 = getelementptr inbounds nuw %struct.pair_entry, ptr %26, i32 0, i32 0
  %28 = load ptr, ptr %6, align 8, !tbaa !11
  %29 = call i32 @strhash(ptr noundef %28)
  call void @hashmap_entry_init(ptr noundef %27, i32 noundef %29)
  %30 = load ptr, ptr %5, align 8, !tbaa !97
  %31 = load ptr, ptr %9, align 8, !tbaa !79
  %32 = getelementptr inbounds nuw %struct.pair_entry, ptr %31, i32 0, i32 0
  %33 = call ptr @hashmap_get(ptr noundef %30, ptr noundef %32, ptr noundef null)
  %34 = call ptr @container_of_or_null_offset(ptr noundef %33, i64 noundef 0)
  store ptr %34, ptr %10, align 8, !tbaa !79
  %35 = load ptr, ptr %10, align 8, !tbaa !79
  %36 = icmp ne ptr %35, null
  br i1 %36, label %37, label %40

37:                                               ; preds = %25
  %38 = load ptr, ptr %9, align 8, !tbaa !79
  call void @free(ptr noundef %38) #9
  %39 = load ptr, ptr %10, align 8, !tbaa !79
  store ptr %39, ptr %9, align 8, !tbaa !79
  br label %50

40:                                               ; preds = %25
  %41 = load ptr, ptr %9, align 8, !tbaa !79
  %42 = getelementptr inbounds nuw %struct.pair_entry, ptr %41, i32 0, i32 2
  %43 = getelementptr inbounds [4096 x i8], ptr %42, i64 0, i64 0
  store i8 0, ptr %43, align 8, !tbaa !33
  %44 = load ptr, ptr %9, align 8, !tbaa !79
  %45 = getelementptr inbounds nuw %struct.pair_entry, ptr %44, i32 0, i32 1
  %46 = getelementptr inbounds [4096 x i8], ptr %45, i64 0, i64 0
  store i8 0, ptr %46, align 8, !tbaa !33
  %47 = load ptr, ptr %5, align 8, !tbaa !97
  %48 = load ptr, ptr %9, align 8, !tbaa !79
  %49 = getelementptr inbounds nuw %struct.pair_entry, ptr %48, i32 0, i32 0
  call void @hashmap_add(ptr noundef %47, ptr noundef %49)
  br label %50

50:                                               ; preds = %40, %37
  %51 = load i32, ptr %8, align 4, !tbaa !4
  %52 = icmp ne i32 %51, 0
  br i1 %52, label %53, label %57

53:                                               ; preds = %50
  %54 = load ptr, ptr %9, align 8, !tbaa !79
  %55 = getelementptr inbounds nuw %struct.pair_entry, ptr %54, i32 0, i32 2
  %56 = getelementptr inbounds [4096 x i8], ptr %55, i64 0, i64 0
  br label %61

57:                                               ; preds = %50
  %58 = load ptr, ptr %9, align 8, !tbaa !79
  %59 = getelementptr inbounds nuw %struct.pair_entry, ptr %58, i32 0, i32 1
  %60 = getelementptr inbounds [4096 x i8], ptr %59, i64 0, i64 0
  br label %61

61:                                               ; preds = %57, %53
  %62 = phi ptr [ %56, %53 ], [ %60, %57 ]
  %63 = load ptr, ptr %7, align 8, !tbaa !11
  %64 = call i64 @gitstrlcpy(ptr noundef %62, ptr noundef %63, i64 noundef 4096)
  call void @llvm.lifetime.end.p0(i64 8, ptr %10) #9
  call void @llvm.lifetime.end.p0(i64 8, ptr %9) #9
  ret void
}