; Function Attrs: nounwind uwtable
define internal fastcc void @add_left_or_right(ptr noundef nonnull %0, ptr noundef %1, ptr noundef %2, i32 noundef range(i32 0, 2) %3) unnamed_addr #0 {
  %5 = tail call i64 @strlen(ptr noundef nonnull dereferenceable(1) %1) #20
  %6 = icmp ugt i64 %5, -8209
  br i1 %6, label %7, label %st_add.exit

7:                                                ; preds = %4
  tail call void (ptr, ...) @die(ptr noundef nonnull @.str.83, i64 noundef 8208, i64 noundef %5) #19
  unreachable

st_add.exit:                                      ; preds = %4
  %8 = icmp eq i64 %5, -8209
  br i1 %8, label %9, label %st_add.exit21

9:                                                ; preds = %st_add.exit
  tail call void (ptr, ...) @die(ptr noundef nonnull @.str.83, i64 noundef -1, i64 noundef 1) #19
  unreachable

st_add.exit21:                                    ; preds = %st_add.exit
  %10 = add nuw i64 %5, 8209
  %11 = tail call ptr @xcalloc(i64 noundef 1, i64 noundef %10) #18
  %12 = getelementptr inbounds nuw i8, ptr %11, i64 8208
  tail call void @llvm.memcpy.p0.p0.i64(ptr nonnull align 8 %12, ptr nonnull align 1 %1, i64 %5, i1 false)
  %13 = tail call i32 @strhash(ptr noundef nonnull %1) #18
  %14 = getelementptr inbounds nuw i8, ptr %11, i64 8
  store i32 %13, ptr %14, align 8, !tbaa !61
  store ptr null, ptr %11, align 8, !tbaa !64
  %15 = tail call ptr @hashmap_get(ptr noundef nonnull %0, ptr noundef nonnull %11, ptr noundef null) #18
  %.not = icmp eq ptr %15, null
  br i1 %.not, label %17, label %16

16:                                               ; preds = %st_add.exit21
  tail call void @free(ptr noundef nonnull %11) #18
  br label %20

17:                                               ; preds = %st_add.exit21
  %18 = getelementptr inbounds nuw i8, ptr %11, i64 4112
  store i8 0, ptr %18, align 8, !tbaa !28
  %19 = getelementptr inbounds nuw i8, ptr %11, i64 16
  store i8 0, ptr %19, align 8, !tbaa !28
  tail call void @hashmap_add(ptr noundef nonnull %0, ptr noundef nonnull %11) #18
  br label %20

20:                                               ; preds = %17, %16
  %.0 = phi ptr [ %15, %16 ], [ %11, %17 ]
  %.not20 = icmp eq i32 %3, 0
  %.v = select i1 %.not20, i64 16, i64 4112
  %21 = getelementptr inbounds nuw i8, ptr %.0, i64 %.v
  %22 = tail call i64 @gitstrlcpy(ptr noundef nonnull %21, ptr noundef %2, i64 noundef 4096) #18
  ret void
}